; Function Attrs: nounwind uwtable
define i32 @WebPMuxDeleteFrame(ptr noundef %0, i32 noundef %1) local_unnamed_addr #0 {
  %3 = icmp eq ptr %0, null
  br i1 %3, label %6, label %4

4:                                                ; preds = %2
  %5 = tail call i32 @MuxImageDeleteNth(ptr noundef nonnull %0, i32 noundef %1) #7
  br label %6

6:                                                ; preds = %2, %4
  %.0 = phi i32 [ %5, %4 ], [ -1, %2 ]
  ret i32 %.0
}